target datalayout = "e-m:e-p270:32:32-p271:32:32-p272:64:64-i64:64-i128:128-f80:128-n8:16:32:64-S128"
target triple = "x86_64-pc-linux-gnu"

%"class.boost::system::error_code" = type { %union.anon.1, i64 }
%union.anon.1 = type { %"struct.boost::system::error_code::data" }
%"struct.boost::system::error_code::data" = type { i32, ptr }
%"struct.boost::cobalt::detail::main_promise" = type { %"struct.boost::cobalt::detail::signal_helper", %"struct.boost::cobalt::promise_cancellation_base", %"struct.boost::cobalt::promise_throw_if_cancelled_base", %"class.std::pmr::unsynchronized_pool_resource", ptr, %"class.std::optional", %"class.std::optional.4", ptr }
%"struct.boost::cobalt::detail::signal_helper" = type { %"class.boost::asio::cancellation_signal" }
%"class.boost::asio::cancellation_signal" = type { ptr }
%"struct.boost::cobalt::promise_cancellation_base" = type { %"class.boost::asio::cancellation_slot", %"class.boost::asio::cancellation_state" }
%"class.boost::asio::cancellation_slot" = type { ptr }
%"class.boost::asio::cancellation_state" = type { ptr }
%"struct.boost::cobalt::promise_throw_if_cancelled_base" = type { i8 }
%"class.std::pmr::unsynchronized_pool_resource" = type { %"class.std::pmr::memory_resource", %"class.std::pmr::__pool_resource", ptr }
%"class.std::pmr::memory_resource" = type { ptr }
%"class.std::pmr::__pool_resource" = type <{ %"struct.std::pmr::pool_options", %"class.std::vector", i32, [4 x i8] }>
%"struct.std::pmr::pool_options" = type { i64, i64 }
%"class.std::vector" = type { %"struct.std::_Vector_base" }
%"struct.std::_Vector_base" = type { %"struct.std::_Vector_base<std::pmr::__pool_resource::_BigBlock, std::pmr::polymorphic_allocator<std::pmr::__pool_resource::_BigBlock>>::_Vector_impl" }
%"struct.std::_Vector_base<std::pmr::__pool_resource::_BigBlock, std::pmr::polymorphic_allocator<std::pmr::__pool_resource::_BigBlock>>::_Vector_impl" = type { %"class.std::pmr::polymorphic_allocator", %"struct.std::_Vector_base<std::pmr::__pool_resource::_BigBlock, std::pmr::polymorphic_allocator<std::pmr::__pool_resource::_BigBlock>>::_Vector_impl_data" }
%"class.std::pmr::polymorphic_allocator" = type { ptr }
%"struct.std::_Vector_base<std::pmr::__pool_resource::_BigBlock, std::pmr::polymorphic_allocator<std::pmr::__pool_resource::_BigBlock>>::_Vector_impl_data" = type { ptr, ptr, ptr }
%"class.std::optional" = type { %"struct.std::_Optional_base" }
%"struct.std::_Optional_base" = type { %"struct.std::_Optional_payload" }
%"struct.std::_Optional_payload" = type { %"struct.std::_Optional_payload.base", [7 x i8] }
%"struct.std::_Optional_payload.base" = type { %"struct.std::_Optional_payload_base.base" }
%"struct.std::_Optional_payload_base.base" = type { %"union.std::_Optional_payload_base<boost::asio::executor_work_guard<boost::asio::any_io_executor>>::_Storage", i8 }
%"union.std::_Optional_payload_base<boost::asio::executor_work_guard<boost::asio::any_io_executor>>::_Storage" = type { %"class.boost::asio::executor_work_guard" }
%"class.boost::asio::executor_work_guard" = type <{ %"class.boost::asio::any_io_executor", %"struct.boost::asio::aligned_storage<56, 8>::type", i8, [7 x i8] }>
%"class.boost::asio::any_io_executor" = type { %"class.boost::asio::execution::any_executor" }
%"class.boost::asio::execution::any_executor" = type { %"class.boost::asio::execution::detail::any_executor_base", ptr }
%"class.boost::asio::execution::detail::any_executor_base" = type { %"struct.boost::asio::aligned_storage<24, 8>::type", ptr, ptr, ptr }
%"struct.boost::asio::aligned_storage<24, 8>::type" = type { [24 x i8] }
%"struct.boost::asio::aligned_storage<56, 8>::type" = type { [56 x i8] }
%"class.std::optional.4" = type { %"struct.std::_Optional_base.5" }
%"struct.std::_Optional_base.5" = type { %"struct.std::_Optional_payload.7" }
%"struct.std::_Optional_payload.7" = type { %"struct.std::_Optional_payload.base.11", [7 x i8] }
%"struct.std::_Optional_payload.base.11" = type { %"struct.std::_Optional_payload_base.base.10" }
%"struct.std::_Optional_payload_base.base.10" = type <{ %"union.std::_Optional_payload_base<boost::asio::any_io_executor>::_Storage", i8 }>
%"union.std::_Optional_payload_base<boost::asio::any_io_executor>::_Storage" = type { %"class.boost::asio::any_io_executor" }
%"class.boost::asio::basic_signal_set" = type { %"class.boost::asio::detail::io_object_impl" }
%"class.boost::asio::detail::io_object_impl" = type { ptr, %"class.boost::asio::detail::signal_set_service::implementation_type", %"class.boost::asio::any_io_executor" }
%"class.boost::asio::detail::signal_set_service::implementation_type" = type { %"class.boost::asio::detail::op_queue", ptr }
%"class.boost::asio::detail::op_queue" = type { ptr, ptr }

; Function Attrs: mustprogress nounwind uwtable
define linkonce_odr hidden noundef nonnull align 8 dereferenceable(24) ptr @_ZN5boost4asio6detail14io_object_implINS1_18signal_set_serviceENS0_15any_io_executorEE18get_implementationEv(ptr noundef nonnull align 8 dereferenceable(88) %0) #2 comdat align 2 {
  %2 = alloca ptr, align 8
  store ptr %0, ptr %2, align 8, !tbaa !7
  %3 = load ptr, ptr %2, align 8
  %4 = getelementptr inbounds nuw %"class.boost::asio::detail::io_object_impl", ptr %3, i32 0, i32 1
  ret ptr %4
}

; Function Attrs: mustprogress nounwind uwtable
define linkonce_odr hidden noundef nonnull align 8 dereferenceable(600) ptr @_ZN5boost4asio6detail14io_object_implINS1_18signal_set_serviceENS0_15any_io_executorEE11get_serviceEv(ptr noundef nonnull align 8 dereferenceable(88) %0) #2 comdat align 2 {
  %2 = alloca ptr, align 8
  store ptr %0, ptr %2, align 8, !tbaa !7
  %3 = load ptr, ptr %2, align 8
  %4 = getelementptr inbounds nuw %"class.boost::asio::detail::io_object_impl", ptr %3, i32 0, i32 0
  %5 = load ptr, ptr %4, align 8, !tbaa !274
  ret ptr %5
}

; Function Attrs: mustprogress uwtable
define linkonce_odr hidden void @_ZN5boost4asio16basic_signal_setINS0_15any_io_executorEE6cancelERNS_6system10error_codeE(ptr dead_on_unwind noalias writable sret(%"class.boost::system::error_code") align 8 %0, ptr noundef nonnull align 8 dereferenceable(88) %1, ptr noundef nonnull align 8 dereferenceable(24) %2) #5 comdat align 2 {
  %4 = alloca ptr, align 8
  %5 = alloca ptr, align 8
  %6 = alloca %"class.boost::system::error_code", align 8
  store ptr %1, ptr %4, align 8, !tbaa !7
  store ptr %2, ptr %5, align 8, !tbaa !7
  %7 = load ptr, ptr %4, align 8
  %8 = getelementptr inbounds nuw %"class.boost::asio::basic_signal_set", ptr %7, i32 0, i32 0
  %9 = call noundef nonnull align 8 dereferenceable(600) ptr @_ZN5boost4asio6detail14io_object_implINS1_18signal_set_serviceENS0_15any_io_executorEE11get_serviceEv(ptr noundef nonnull align 8 dereferenceable(88) %8)
  %10 = getelementptr inbounds nuw %"class.boost::asio::basic_signal_set", ptr %7, i32 0, i32 0
  %11 = call noundef nonnull align 8 dereferenceable(24) ptr @_ZN5boost4asio6detail14io_object_implINS1_18signal_set_serviceENS0_15any_io_executorEE18get_implementationEv(ptr noundef nonnull align 8 dereferenceable(88) %10)
  %12 = load ptr, ptr %5, align 8, !tbaa !7
  call void @llvm.lifetime.start.p0(i64 24, ptr %6) #7
  call void @_ZN5boost4asio6detail18signal_set_service6cancelERNS2_19implementation_typeERNS_6system10error_codeE(ptr dead_on_unwind writable sret(%"class.boost::system::error_code") align 8 %6, ptr noundef nonnull align 8 dereferenceable(600) %9, ptr noundef nonnull align 8 dereferenceable(24) %11, ptr noundef nonnull align 8 dereferenceable(24) %12)
  call void @llvm.lifetime.end.p0(i64 24, ptr %6) #7
  %13 = load ptr, ptr %5, align 8, !tbaa !7
  call void @llvm.memcpy.p0.p0.i64(ptr align 8 %0, ptr align 8 %13, i64 24, i1 false), !tbaa.struct !47
  ret void
}

; Function Attrs: mustprogress nounwind uwtable
define linkonce_odr hidden void @_ZN5boost6system10error_codeC2Ev(ptr noundef nonnull align 8 dereferenceable(24) %0) unnamed_addr #2 comdat align 2 {
  %2 = alloca ptr, align 8
  store ptr %0, ptr %2, align 8, !tbaa !7
  %3 = load ptr, ptr %2, align 8
  %4 = getelementptr inbounds nuw %"class.boost::system::error_code", ptr %3, i32 0, i32 0
  call void @llvm.memset.p0.i64(ptr align 8 %4, i8 0, i64 16, i1 false)
  %5 = getelementptr inbounds nuw %"class.boost::system::error_code", ptr %3, i32 0, i32 1
  store i64 0, ptr %5, align 8, !tbaa !45
  ret void
}

; Function Attrs: mustprogress nounwind uwtable
define void @_ZN5boost6cobalt6detail12main_promise13final_suspendEv(ptr noundef nonnull align 8 dereferenceable(312) %0) #2 align 2 personality ptr @__gxx_personality_v0 {
  %2 = alloca ptr, align 8
  %3 = alloca %"class.boost::system::error_code", align 8
  %4 = alloca %"class.boost::system::error_code", align 8
  store ptr %0, ptr %2, align 8, !tbaa !7
  %5 = load ptr, ptr %2, align 8
  call void @llvm.lifetime.start.p0(i64 24, ptr %3) #7
  call void @_ZN5boost6system10error_codeC2Ev(ptr noundef nonnull align 8 dereferenceable(24) %3) #7
  %6 = getelementptr inbounds nuw %"struct.boost::cobalt::detail::main_promise", ptr %5, i32 0, i32 7
  %7 = load ptr, ptr %6, align 8, !tbaa !16
  %8 = icmp ne ptr %7, null
  br i1 %8, label %9, label %13

9:                                                ; preds = %1
  %10 = getelementptr inbounds nuw %"struct.boost::cobalt::detail::main_promise", ptr %5, i32 0, i32 7
  %11 = load ptr, ptr %10, align 8, !tbaa !16
  call void @llvm.lifetime.start.p0(i64 24, ptr %4) #7
  invoke void @_ZN5boost4asio16basic_signal_setINS0_15any_io_executorEE6cancelERNS_6system10error_codeE(ptr dead_on_unwind writable sret(%"class.boost::system::error_code") align 8 %4, ptr noundef nonnull align 8 dereferenceable(88) %11, ptr noundef nonnull align 8 dereferenceable(24) %3)
          to label %12 unwind label %14

12:                                               ; preds = %9
  call void @llvm.lifetime.end.p0(i64 24, ptr %4) #7
  br label %13

13:                                               ; preds = %12, %1
  call void @llvm.lifetime.end.p0(i64 24, ptr %3) #7
  ret void

14:                                               ; preds = %9
  %15 = landingpad { ptr, i32 }
          catch ptr null
  %16 = extractvalue { ptr, i32 } %15, 0
  call void @__clang_call_terminate(ptr %16) #27
  unreachable
}