; Function Attrs: mustprogress nounwind uwtable
define void @_ZN5boost6cobalt6detail12main_promise13final_suspendEv(ptr nocapture noundef nonnull readonly align 8 dereferenceable(312) %0) local_unnamed_addr #7 align 2 personality ptr @__gxx_personality_v0 {
  %2 = alloca %"class.boost::system::error_code", align 8
  %3 = alloca %"class.boost::system::error_code", align 8
  call void @llvm.lifetime.start.p0(i64 24, ptr nonnull %3) #32
  call void @llvm.memset.p0.i64(ptr noundef nonnull align 8 dereferenceable(24) %3, i8 0, i64 24, i1 false)
  %4 = getelementptr inbounds nuw i8, ptr %0, i64 304
  %5 = load ptr, ptr %4, align 8, !tbaa !7
  %.not = icmp eq ptr %5, null
  br i1 %.not, label %10, label %6

6:                                                ; preds = %1
  %7 = load ptr, ptr %5, align 8, !tbaa !37, !noalias !45
  %8 = getelementptr inbounds nuw i8, ptr %5, i64 8
  call void @llvm.lifetime.start.p0(i64 24, ptr nonnull %2) #32, !noalias !45
  invoke void @_ZN5boost4asio6detail18signal_set_service6cancelERNS2_19implementation_typeERNS_6system10error_codeE(ptr dead_on_unwind nonnull writable sret(%"class.boost::system::error_code") align 8 %2, ptr noundef nonnull align 8 dereferenceable(600) %7, ptr noundef nonnull align 8 dereferenceable(24) %8, ptr noundef nonnull align 8 dereferenceable(24) %3)
          to label %9 unwind label %11

9:                                                ; preds = %6
  call void @llvm.lifetime.end.p0(i64 24, ptr nonnull %2) #32, !noalias !45
  br label %10

10:                                               ; preds = %9, %1
  call void @llvm.lifetime.end.p0(i64 24, ptr nonnull %3) #32
  ret void

11:                                               ; preds = %6
  %12 = landingpad { ptr, i32 }
          catch ptr null
  %13 = extractvalue { ptr, i32 } %12, 0
  call void @__clang_call_terminate(ptr %13) #33
  unreachable
}